
uaf:     file format elf64-x86-64


Disassembly of section .init:

00000000000007c8 <_init>:
 7c8:	48 83 ec 08          	sub    rsp,0x8
 7cc:	48 8b 05 15 18 20 00 	mov    rax,QWORD PTR [rip+0x201815]        # 201fe8 <__gmon_start__>
 7d3:	48 85 c0             	test   rax,rax
 7d6:	74 02                	je     7da <_init+0x12>
 7d8:	ff d0                	call   rax
 7da:	48 83 c4 08          	add    rsp,0x8
 7de:	c3                   	ret    

Disassembly of section .plt:

00000000000007e0 <.plt>:
 7e0:	ff 35 92 17 20 00    	push   QWORD PTR [rip+0x201792]        # 201f78 <_GLOBAL_OFFSET_TABLE_+0x8>
 7e6:	ff 25 94 17 20 00    	jmp    QWORD PTR [rip+0x201794]        # 201f80 <_GLOBAL_OFFSET_TABLE_+0x10>
 7ec:	0f 1f 40 00          	nop    DWORD PTR [rax+0x0]

00000000000007f0 <free@plt>:
 7f0:	ff 25 92 17 20 00    	jmp    QWORD PTR [rip+0x201792]        # 201f88 <free@GLIBC_2.2.5>
 7f6:	68 00 00 00 00       	push   0x0
 7fb:	e9 e0 ff ff ff       	jmp    7e0 <.plt>

0000000000000800 <__read_chk@plt>:
 800:	ff 25 8a 17 20 00    	jmp    QWORD PTR [rip+0x20178a]        # 201f90 <__read_chk@GLIBC_2.4>
 806:	68 01 00 00 00       	push   0x1
 80b:	e9 d0 ff ff ff       	jmp    7e0 <.plt>

0000000000000810 <puts@plt>:
 810:	ff 25 82 17 20 00    	jmp    QWORD PTR [rip+0x201782]        # 201f98 <puts@GLIBC_2.2.5>
 816:	68 02 00 00 00       	push   0x2
 81b:	e9 c0 ff ff ff       	jmp    7e0 <.plt>

0000000000000820 <__stack_chk_fail@plt>:
 820:	ff 25 7a 17 20 00    	jmp    QWORD PTR [rip+0x20177a]        # 201fa0 <__stack_chk_fail@GLIBC_2.4>
 826:	68 03 00 00 00       	push   0x3
 82b:	e9 b0 ff ff ff       	jmp    7e0 <.plt>

0000000000000830 <system@plt>:
 830:	ff 25 72 17 20 00    	jmp    QWORD PTR [rip+0x201772]        # 201fa8 <system@GLIBC_2.2.5>
 836:	68 04 00 00 00       	push   0x4
 83b:	e9 a0 ff ff ff       	jmp    7e0 <.plt>

0000000000000840 <printf@plt>:
 840:	ff 25 6a 17 20 00    	jmp    QWORD PTR [rip+0x20176a]        # 201fb0 <printf@GLIBC_2.2.5>
 846:	68 05 00 00 00       	push   0x5
 84b:	e9 90 ff ff ff       	jmp    7e0 <.plt>

0000000000000850 <read@plt>:
 850:	ff 25 62 17 20 00    	jmp    QWORD PTR [rip+0x201762]        # 201fb8 <read@GLIBC_2.2.5>
 856:	68 06 00 00 00       	push   0x6
 85b:	e9 80 ff ff ff       	jmp    7e0 <.plt>

0000000000000860 <malloc@plt>:
 860:	ff 25 5a 17 20 00    	jmp    QWORD PTR [rip+0x20175a]        # 201fc0 <malloc@GLIBC_2.2.5>
 866:	68 07 00 00 00       	push   0x7
 86b:	e9 70 ff ff ff       	jmp    7e0 <.plt>

0000000000000870 <setvbuf@plt>:
 870:	ff 25 52 17 20 00    	jmp    QWORD PTR [rip+0x201752]        # 201fc8 <setvbuf@GLIBC_2.2.5>
 876:	68 08 00 00 00       	push   0x8
 87b:	e9 60 ff ff ff       	jmp    7e0 <.plt>

0000000000000880 <atoi@plt>:
 880:	ff 25 4a 17 20 00    	jmp    QWORD PTR [rip+0x20174a]        # 201fd0 <atoi@GLIBC_2.2.5>
 886:	68 09 00 00 00       	push   0x9
 88b:	e9 50 ff ff ff       	jmp    7e0 <.plt>

Disassembly of section .plt.got:

0000000000000890 <__cxa_finalize@plt>:
 890:	ff 25 62 17 20 00    	jmp    QWORD PTR [rip+0x201762]        # 201ff8 <__cxa_finalize@GLIBC_2.2.5>
 896:	66 90                	xchg   ax,ax

Disassembly of section .text:

00000000000008a0 <_start>:
 8a0:	31 ed                	xor    ebp,ebp
 8a2:	49 89 d1             	mov    r9,rdx
 8a5:	5e                   	pop    rsi
 8a6:	48 89 e2             	mov    rdx,rsp
 8a9:	48 83 e4 f0          	and    rsp,0xfffffffffffffff0
 8ad:	50                   	push   rax
 8ae:	54                   	push   rsp
 8af:	4c 8d 05 8a 03 00 00 	lea    r8,[rip+0x38a]        # c40 <__libc_csu_fini>
 8b6:	48 8d 0d 13 03 00 00 	lea    rcx,[rip+0x313]        # bd0 <__libc_csu_init>
 8bd:	48 8d 3d 04 02 00 00 	lea    rdi,[rip+0x204]        # ac8 <main>
 8c4:	ff 15 16 17 20 00    	call   QWORD PTR [rip+0x201716]        # 201fe0 <__libc_start_main@GLIBC_2.2.5>
 8ca:	f4                   	hlt    
 8cb:	0f 1f 44 00 00       	nop    DWORD PTR [rax+rax*1+0x0]

00000000000008d0 <deregister_tm_clones>:
 8d0:	48 8d 3d 39 17 20 00 	lea    rdi,[rip+0x201739]        # 202010 <__TMC_END__>
 8d7:	55                   	push   rbp
 8d8:	48 8d 05 31 17 20 00 	lea    rax,[rip+0x201731]        # 202010 <__TMC_END__>
 8df:	48 39 f8             	cmp    rax,rdi
 8e2:	48 89 e5             	mov    rbp,rsp
 8e5:	74 19                	je     900 <deregister_tm_clones+0x30>
 8e7:	48 8b 05 ea 16 20 00 	mov    rax,QWORD PTR [rip+0x2016ea]        # 201fd8 <_ITM_deregisterTMCloneTable>
 8ee:	48 85 c0             	test   rax,rax
 8f1:	74 0d                	je     900 <deregister_tm_clones+0x30>
 8f3:	5d                   	pop    rbp
 8f4:	ff e0                	jmp    rax
 8f6:	66 2e 0f 1f 84 00 00 	nop    WORD PTR cs:[rax+rax*1+0x0]
 8fd:	00 00 00 
 900:	5d                   	pop    rbp
 901:	c3                   	ret    
 902:	0f 1f 40 00          	nop    DWORD PTR [rax+0x0]
 906:	66 2e 0f 1f 84 00 00 	nop    WORD PTR cs:[rax+rax*1+0x0]
 90d:	00 00 00 

0000000000000910 <register_tm_clones>:
 910:	48 8d 3d f9 16 20 00 	lea    rdi,[rip+0x2016f9]        # 202010 <__TMC_END__>
 917:	48 8d 35 f2 16 20 00 	lea    rsi,[rip+0x2016f2]        # 202010 <__TMC_END__>
 91e:	55                   	push   rbp
 91f:	48 29 fe             	sub    rsi,rdi
 922:	48 89 e5             	mov    rbp,rsp
 925:	48 c1 fe 03          	sar    rsi,0x3
 929:	48 89 f0             	mov    rax,rsi
 92c:	48 c1 e8 3f          	shr    rax,0x3f
 930:	48 01 c6             	add    rsi,rax
 933:	48 d1 fe             	sar    rsi,1
 936:	74 18                	je     950 <register_tm_clones+0x40>
 938:	48 8b 05 b1 16 20 00 	mov    rax,QWORD PTR [rip+0x2016b1]        # 201ff0 <_ITM_registerTMCloneTable>
 93f:	48 85 c0             	test   rax,rax
 942:	74 0c                	je     950 <register_tm_clones+0x40>
 944:	5d                   	pop    rbp
 945:	ff e0                	jmp    rax
 947:	66 0f 1f 84 00 00 00 	nop    WORD PTR [rax+rax*1+0x0]
 94e:	00 00 
 950:	5d                   	pop    rbp
 951:	c3                   	ret    
 952:	0f 1f 40 00          	nop    DWORD PTR [rax+0x0]
 956:	66 2e 0f 1f 84 00 00 	nop    WORD PTR cs:[rax+rax*1+0x0]
 95d:	00 00 00 

0000000000000960 <__do_global_dtors_aux>:
 960:	80 3d e1 16 20 00 00 	cmp    BYTE PTR [rip+0x2016e1],0x0        # 202048 <completed.7697>
 967:	75 2f                	jne    998 <__do_global_dtors_aux+0x38>
 969:	48 83 3d 87 16 20 00 	cmp    QWORD PTR [rip+0x201687],0x0        # 201ff8 <__cxa_finalize@GLIBC_2.2.5>
 970:	00 
 971:	55                   	push   rbp
 972:	48 89 e5             	mov    rbp,rsp
 975:	74 0c                	je     983 <__do_global_dtors_aux+0x23>
 977:	48 8b 3d 8a 16 20 00 	mov    rdi,QWORD PTR [rip+0x20168a]        # 202008 <__dso_handle>
 97e:	e8 0d ff ff ff       	call   890 <__cxa_finalize@plt>
 983:	e8 48 ff ff ff       	call   8d0 <deregister_tm_clones>
 988:	c6 05 b9 16 20 00 01 	mov    BYTE PTR [rip+0x2016b9],0x1        # 202048 <completed.7697>
 98f:	5d                   	pop    rbp
 990:	c3                   	ret    
 991:	0f 1f 80 00 00 00 00 	nop    DWORD PTR [rax+0x0]
 998:	f3 c3                	repz ret 
 99a:	66 0f 1f 44 00 00    	nop    WORD PTR [rax+rax*1+0x0]

00000000000009a0 <frame_dummy>:
 9a0:	55                   	push   rbp
 9a1:	48 89 e5             	mov    rbp,rsp
 9a4:	5d                   	pop    rbp
 9a5:	e9 66 ff ff ff       	jmp    910 <register_tm_clones>

00000000000009aa <init>:
 9aa:	55                   	push   rbp
 9ab:	48 89 e5             	mov    rbp,rsp
 9ae:	48 8b 05 6b 16 20 00 	mov    rax,QWORD PTR [rip+0x20166b]        # 202020 <stdout@@GLIBC_2.2.5>
 9b5:	b9 00 00 00 00       	mov    ecx,0x0
 9ba:	ba 02 00 00 00       	mov    edx,0x2
 9bf:	be 00 00 00 00       	mov    esi,0x0
 9c4:	48 89 c7             	mov    rdi,rax
 9c7:	e8 a4 fe ff ff       	call   870 <setvbuf@plt>
 9cc:	48 8b 05 5d 16 20 00 	mov    rax,QWORD PTR [rip+0x20165d]        # 202030 <stdin@@GLIBC_2.2.5>
 9d3:	b9 00 00 00 00       	mov    ecx,0x0
 9d8:	ba 02 00 00 00       	mov    edx,0x2
 9dd:	be 00 00 00 00       	mov    esi,0x0
 9e2:	48 89 c7             	mov    rdi,rax
 9e5:	e8 86 fe ff ff       	call   870 <setvbuf@plt>
 9ea:	48 8b 05 4f 16 20 00 	mov    rax,QWORD PTR [rip+0x20164f]        # 202040 <stderr@@GLIBC_2.2.5>
 9f1:	b9 00 00 00 00       	mov    ecx,0x0
 9f6:	ba 02 00 00 00       	mov    edx,0x2
 9fb:	be 00 00 00 00       	mov    esi,0x0
 a00:	48 89 c7             	mov    rdi,rax
 a03:	e8 68 fe ff ff       	call   870 <setvbuf@plt>
 a08:	90                   	nop
 a09:	5d                   	pop    rbp
 a0a:	c3                   	ret    

0000000000000a0b <read_int>:
 a0b:	55                   	push   rbp
 a0c:	48 89 e5             	mov    rbp,rsp
 a0f:	48 83 ec 20          	sub    rsp,0x20
 a13:	64 48 8b 04 25 28 00 	mov    rax,QWORD PTR fs:0x28
 a1a:	00 00 
 a1c:	48 89 45 f8          	mov    QWORD PTR [rbp-0x8],rax
 a20:	31 c0                	xor    eax,eax
 a22:	48 8d 45 e0          	lea    rax,[rbp-0x20]
 a26:	b9 10 00 00 00       	mov    ecx,0x10
 a2b:	ba 0f 00 00 00       	mov    edx,0xf
 a30:	48 89 c6             	mov    rsi,rax
 a33:	bf 00 00 00 00       	mov    edi,0x0
 a38:	b8 00 00 00 00       	mov    eax,0x0
 a3d:	e8 be fd ff ff       	call   800 <__read_chk@plt>
 a42:	48 8d 45 e0          	lea    rax,[rbp-0x20]
 a46:	48 89 c7             	mov    rdi,rax
 a49:	e8 32 fe ff ff       	call   880 <atoi@plt>
 a4e:	48 8b 55 f8          	mov    rdx,QWORD PTR [rbp-0x8]
 a52:	64 48 33 14 25 28 00 	xor    rdx,QWORD PTR fs:0x28
 a59:	00 00 
 a5b:	74 05                	je     a62 <read_int+0x57>
 a5d:	e8 be fd ff ff       	call   820 <__stack_chk_fail@plt>
 a62:	c9                   	leave  
 a63:	c3                   	ret    

0000000000000a64 <welcome_func>:
 a64:	55                   	push   rbp
 a65:	48 89 e5             	mov    rbp,rsp
 a68:	48 8d 3d e5 01 00 00 	lea    rdi,[rip+0x1e5]        # c54 <_IO_stdin_used+0x4>
 a6f:	e8 9c fd ff ff       	call   810 <puts@plt>
 a74:	90                   	nop
 a75:	5d                   	pop    rbp
 a76:	c3                   	ret    

0000000000000a77 <bye_func>:
 a77:	55                   	push   rbp
 a78:	48 89 e5             	mov    rbp,rsp
 a7b:	48 8d 3d dc 01 00 00 	lea    rdi,[rip+0x1dc]        # c5e <_IO_stdin_used+0xe>
 a82:	e8 89 fd ff ff       	call   810 <puts@plt>
 a87:	90                   	nop
 a88:	5d                   	pop    rbp
 a89:	c3                   	ret    

0000000000000a8a <menu>:
 a8a:	55                   	push   rbp
 a8b:	48 89 e5             	mov    rbp,rsp
 a8e:	48 8d 3d d1 01 00 00 	lea    rdi,[rip+0x1d1]        # c66 <_IO_stdin_used+0x16>
 a95:	e8 76 fd ff ff       	call   810 <puts@plt>
 a9a:	48 8d 3d d2 01 00 00 	lea    rdi,[rip+0x1d2]        # c73 <_IO_stdin_used+0x23>
 aa1:	e8 6a fd ff ff       	call   810 <puts@plt>
 aa6:	48 8d 3d ce 01 00 00 	lea    rdi,[rip+0x1ce]        # c7b <_IO_stdin_used+0x2b>
 aad:	e8 5e fd ff ff       	call   810 <puts@plt>
 ab2:	90                   	nop
 ab3:	5d                   	pop    rbp
 ab4:	c3                   	ret    

0000000000000ab5 <backdoor>:
 ab5:	55                   	push   rbp
 ab6:	48 89 e5             	mov    rbp,rsp
 ab9:	48 8d 3d bd 01 00 00 	lea    rdi,[rip+0x1bd]        # c7d <_IO_stdin_used+0x2d>
 ac0:	e8 6b fd ff ff       	call   830 <system@plt>
 ac5:	90                   	nop
 ac6:	5d                   	pop    rbp
 ac7:	c3                   	ret    

0000000000000ac8 <main>:
 ac8:	55                   	push   rbp
 ac9:	48 89 e5             	mov    rbp,rsp
 acc:	48 83 ec 20          	sub    rsp,0x20
 ad0:	b8 00 00 00 00       	mov    eax,0x0
 ad5:	e8 d0 fe ff ff       	call   9aa <init>
 ada:	bf 10 00 00 00       	mov    edi,0x10
 adf:	e8 7c fd ff ff       	call   860 <malloc@plt>
 ae4:	48 89 45 f0          	mov    QWORD PTR [rbp-0x10],rax
 ae8:	48 8b 45 f0          	mov    rax,QWORD PTR [rbp-0x10]
 aec:	48 8d 15 71 ff ff ff 	lea    rdx,[rip+0xffffffffffffff71]        # a64 <welcome_func>
 af3:	48 89 10             	mov    QWORD PTR [rax],rdx
 af6:	48 8b 45 f0          	mov    rax,QWORD PTR [rbp-0x10]
 afa:	48 8d 15 76 ff ff ff 	lea    rdx,[rip+0xffffffffffffff76]        # a77 <bye_func>
 b01:	48 89 50 08          	mov    QWORD PTR [rax+0x8],rdx
 b05:	48 8b 45 f0          	mov    rax,QWORD PTR [rbp-0x10]
 b09:	48 8b 10             	mov    rdx,QWORD PTR [rax]
 b0c:	b8 00 00 00 00       	mov    eax,0x0
 b11:	ff d2                	call   rdx
 b13:	48 8b 45 f0          	mov    rax,QWORD PTR [rbp-0x10]
 b17:	48 89 c7             	mov    rdi,rax
 b1a:	e8 d1 fc ff ff       	call   7f0 <free@plt>
 b1f:	c7 45 e8 03 00 00 00 	mov    DWORD PTR [rbp-0x18],0x3
 b26:	eb 7d                	jmp    ba5 <main+0xdd>
 b28:	48 8d 3d 51 01 00 00 	lea    rdi,[rip+0x151]        # c80 <_IO_stdin_used+0x30>
 b2f:	b8 00 00 00 00       	mov    eax,0x0
 b34:	e8 07 fd ff ff       	call   840 <printf@plt>
 b39:	b8 00 00 00 00       	mov    eax,0x0
 b3e:	e8 c8 fe ff ff       	call   a0b <read_int>
 b43:	89 45 ec             	mov    DWORD PTR [rbp-0x14],eax
 b46:	8b 45 ec             	mov    eax,DWORD PTR [rbp-0x14]
 b49:	48 98                	cdqe   
 b4b:	48 89 c7             	mov    rdi,rax
 b4e:	e8 0d fd ff ff       	call   860 <malloc@plt>
 b53:	48 89 45 f8          	mov    QWORD PTR [rbp-0x8],rax
 b57:	48 8d 3d 39 01 00 00 	lea    rdi,[rip+0x139]        # c97 <_IO_stdin_used+0x47>
 b5e:	b8 00 00 00 00       	mov    eax,0x0
 b63:	e8 d8 fc ff ff       	call   840 <printf@plt>
 b68:	8b 55 ec             	mov    edx,DWORD PTR [rbp-0x14]
 b6b:	48 8b 45 f8          	mov    rax,QWORD PTR [rbp-0x8]
 b6f:	48 89 c6             	mov    rsi,rax
 b72:	bf 00 00 00 00       	mov    edi,0x0
 b77:	b8 00 00 00 00       	mov    eax,0x0
 b7c:	e8 cf fc ff ff       	call   850 <read@plt>
 b81:	48 8b 45 f8          	mov    rax,QWORD PTR [rbp-0x8]
 b85:	48 89 c6             	mov    rsi,rax
 b88:	48 8d 3d 12 01 00 00 	lea    rdi,[rip+0x112]        # ca1 <_IO_stdin_used+0x51>
 b8f:	b8 00 00 00 00       	mov    eax,0x0
 b94:	e8 a7 fc ff ff       	call   840 <printf@plt>
 b99:	48 8b 45 f8          	mov    rax,QWORD PTR [rbp-0x8]
 b9d:	48 89 c7             	mov    rdi,rax
 ba0:	e8 4b fc ff ff       	call   7f0 <free@plt>
 ba5:	8b 45 e8             	mov    eax,DWORD PTR [rbp-0x18]
 ba8:	8d 50 ff             	lea    edx,[rax-0x1]
 bab:	89 55 e8             	mov    DWORD PTR [rbp-0x18],edx
 bae:	85 c0                	test   eax,eax
 bb0:	0f 85 72 ff ff ff    	jne    b28 <main+0x60>
 bb6:	48 8b 45 f0          	mov    rax,QWORD PTR [rbp-0x10]
 bba:	48 8b 50 08          	mov    rdx,QWORD PTR [rax+0x8]
 bbe:	b8 00 00 00 00       	mov    eax,0x0
 bc3:	ff d2                	call   rdx
 bc5:	b8 00 00 00 00       	mov    eax,0x0
 bca:	c9                   	leave  
 bcb:	c3                   	ret    
 bcc:	0f 1f 40 00          	nop    DWORD PTR [rax+0x0]

0000000000000bd0 <__libc_csu_init>:
 bd0:	41 57                	push   r15
 bd2:	41 56                	push   r14
 bd4:	49 89 d7             	mov    r15,rdx
 bd7:	41 55                	push   r13
 bd9:	41 54                	push   r12
 bdb:	4c 8d 25 8e 11 20 00 	lea    r12,[rip+0x20118e]        # 201d70 <__frame_dummy_init_array_entry>
 be2:	55                   	push   rbp
 be3:	48 8d 2d 8e 11 20 00 	lea    rbp,[rip+0x20118e]        # 201d78 <__init_array_end>
 bea:	53                   	push   rbx
 beb:	41 89 fd             	mov    r13d,edi
 bee:	49 89 f6             	mov    r14,rsi
 bf1:	4c 29 e5             	sub    rbp,r12
 bf4:	48 83 ec 08          	sub    rsp,0x8
 bf8:	48 c1 fd 03          	sar    rbp,0x3
 bfc:	e8 c7 fb ff ff       	call   7c8 <_init>
 c01:	48 85 ed             	test   rbp,rbp
 c04:	74 20                	je     c26 <__libc_csu_init+0x56>
 c06:	31 db                	xor    ebx,ebx
 c08:	0f 1f 84 00 00 00 00 	nop    DWORD PTR [rax+rax*1+0x0]
 c0f:	00 
 c10:	4c 89 fa             	mov    rdx,r15
 c13:	4c 89 f6             	mov    rsi,r14
 c16:	44 89 ef             	mov    edi,r13d
 c19:	41 ff 14 dc          	call   QWORD PTR [r12+rbx*8]
 c1d:	48 83 c3 01          	add    rbx,0x1
 c21:	48 39 dd             	cmp    rbp,rbx
 c24:	75 ea                	jne    c10 <__libc_csu_init+0x40>
 c26:	48 83 c4 08          	add    rsp,0x8
 c2a:	5b                   	pop    rbx
 c2b:	5d                   	pop    rbp
 c2c:	41 5c                	pop    r12
 c2e:	41 5d                	pop    r13
 c30:	41 5e                	pop    r14
 c32:	41 5f                	pop    r15
 c34:	c3                   	ret    
 c35:	90                   	nop
 c36:	66 2e 0f 1f 84 00 00 	nop    WORD PTR cs:[rax+rax*1+0x0]
 c3d:	00 00 00 

0000000000000c40 <__libc_csu_fini>:
 c40:	f3 c3                	repz ret 

Disassembly of section .fini:

0000000000000c44 <_fini>:
 c44:	48 83 ec 08          	sub    rsp,0x8
 c48:	48 83 c4 08          	add    rsp,0x8
 c4c:	c3                   	ret    
