
bof:     file format elf64-x86-64


Disassembly of section .init:

0000000000400530 <_init>:
  400530:	48 83 ec 08          	sub    rsp,0x8
  400534:	48 8b 05 bd 0a 20 00 	mov    rax,QWORD PTR [rip+0x200abd]        # 600ff8 <_DYNAMIC+0x1d8>
  40053b:	48 85 c0             	test   rax,rax
  40053e:	74 02                	je     400542 <_init+0x12>
  400540:	ff d0                	call   rax
  400542:	48 83 c4 08          	add    rsp,0x8
  400546:	c3                   	ret    

Disassembly of section .plt:

0000000000400550 <puts@plt-0x10>:
  400550:	ff 35 b2 0a 20 00    	push   QWORD PTR [rip+0x200ab2]        # 601008 <_GLOBAL_OFFSET_TABLE_+0x8>
  400556:	ff 25 b4 0a 20 00    	jmp    QWORD PTR [rip+0x200ab4]        # 601010 <_GLOBAL_OFFSET_TABLE_+0x10>
  40055c:	0f 1f 40 00          	nop    DWORD PTR [rax+0x0]

0000000000400560 <puts@plt>:
  400560:	ff 25 b2 0a 20 00    	jmp    QWORD PTR [rip+0x200ab2]        # 601018 <_GLOBAL_OFFSET_TABLE_+0x18>
  400566:	68 00 00 00 00       	push   0x0
  40056b:	e9 e0 ff ff ff       	jmp    400550 <_init+0x20>

0000000000400570 <system@plt>:
  400570:	ff 25 aa 0a 20 00    	jmp    QWORD PTR [rip+0x200aaa]        # 601020 <_GLOBAL_OFFSET_TABLE_+0x20>
  400576:	68 01 00 00 00       	push   0x1
  40057b:	e9 d0 ff ff ff       	jmp    400550 <_init+0x20>

0000000000400580 <gets@plt>:
  400580:	ff 25 a2 0a 20 00    	jmp    QWORD PTR [rip+0x200aa2]        # 601028 <_GLOBAL_OFFSET_TABLE_+0x28>
  400586:	68 02 00 00 00       	push   0x2
  40058b:	e9 c0 ff ff ff       	jmp    400550 <_init+0x20>

0000000000400590 <setvbuf@plt>:
  400590:	ff 25 9a 0a 20 00    	jmp    QWORD PTR [rip+0x200a9a]        # 601030 <_GLOBAL_OFFSET_TABLE_+0x30>
  400596:	68 03 00 00 00       	push   0x3
  40059b:	e9 b0 ff ff ff       	jmp    400550 <_init+0x20>

Disassembly of section .text:

00000000004005a0 <_start>:
  4005a0:	31 ed                	xor    ebp,ebp
  4005a2:	49 89 d1             	mov    r9,rdx
  4005a5:	5e                   	pop    rsi
  4005a6:	48 89 e2             	mov    rdx,rsp
  4005a9:	48 83 e4 f0          	and    rsp,0xfffffffffffffff0
  4005ad:	50                   	push   rax
  4005ae:	54                   	push   rsp
  4005af:	49 c7 c0 90 07 40 00 	mov    r8,0x400790
  4005b6:	48 c7 c1 20 07 40 00 	mov    rcx,0x400720
  4005bd:	48 c7 c7 9a 06 40 00 	mov    rdi,0x40069a
  4005c4:	ff 15 26 0a 20 00    	call   QWORD PTR [rip+0x200a26]        # 600ff0 <_DYNAMIC+0x1d0>
  4005ca:	f4                   	hlt    
  4005cb:	0f 1f 44 00 00       	nop    DWORD PTR [rax+rax*1+0x0]

00000000004005d0 <_dl_relocate_static_pie>:
  4005d0:	f3 c3                	repz ret 
  4005d2:	66 2e 0f 1f 84 00 00 	nop    WORD PTR cs:[rax+rax*1+0x0]
  4005d9:	00 00 00 
  4005dc:	0f 1f 40 00          	nop    DWORD PTR [rax+0x0]

00000000004005e0 <deregister_tm_clones>:
  4005e0:	55                   	push   rbp
  4005e1:	b8 48 10 60 00       	mov    eax,0x601048
  4005e6:	48 3d 48 10 60 00    	cmp    rax,0x601048
  4005ec:	48 89 e5             	mov    rbp,rsp
  4005ef:	74 17                	je     400608 <deregister_tm_clones+0x28>
  4005f1:	b8 00 00 00 00       	mov    eax,0x0
  4005f6:	48 85 c0             	test   rax,rax
  4005f9:	74 0d                	je     400608 <deregister_tm_clones+0x28>
  4005fb:	5d                   	pop    rbp
  4005fc:	bf 48 10 60 00       	mov    edi,0x601048
  400601:	ff e0                	jmp    rax
  400603:	0f 1f 44 00 00       	nop    DWORD PTR [rax+rax*1+0x0]
  400608:	5d                   	pop    rbp
  400609:	c3                   	ret    
  40060a:	66 0f 1f 44 00 00    	nop    WORD PTR [rax+rax*1+0x0]

0000000000400610 <register_tm_clones>:
  400610:	be 48 10 60 00       	mov    esi,0x601048
  400615:	55                   	push   rbp
  400616:	48 81 ee 48 10 60 00 	sub    rsi,0x601048
  40061d:	48 89 e5             	mov    rbp,rsp
  400620:	48 c1 fe 03          	sar    rsi,0x3
  400624:	48 89 f0             	mov    rax,rsi
  400627:	48 c1 e8 3f          	shr    rax,0x3f
  40062b:	48 01 c6             	add    rsi,rax
  40062e:	48 d1 fe             	sar    rsi,1
  400631:	74 15                	je     400648 <register_tm_clones+0x38>
  400633:	b8 00 00 00 00       	mov    eax,0x0
  400638:	48 85 c0             	test   rax,rax
  40063b:	74 0b                	je     400648 <register_tm_clones+0x38>
  40063d:	5d                   	pop    rbp
  40063e:	bf 48 10 60 00       	mov    edi,0x601048
  400643:	ff e0                	jmp    rax
  400645:	0f 1f 00             	nop    DWORD PTR [rax]
  400648:	5d                   	pop    rbp
  400649:	c3                   	ret    
  40064a:	66 0f 1f 44 00 00    	nop    WORD PTR [rax+rax*1+0x0]

0000000000400650 <__do_global_dtors_aux>:
  400650:	80 3d 31 0a 20 00 00 	cmp    BYTE PTR [rip+0x200a31],0x0        # 601088 <completed.7697>
  400657:	75 17                	jne    400670 <__do_global_dtors_aux+0x20>
  400659:	55                   	push   rbp
  40065a:	48 89 e5             	mov    rbp,rsp
  40065d:	e8 7e ff ff ff       	call   4005e0 <deregister_tm_clones>
  400662:	c6 05 1f 0a 20 00 01 	mov    BYTE PTR [rip+0x200a1f],0x1        # 601088 <completed.7697>
  400669:	5d                   	pop    rbp
  40066a:	c3                   	ret    
  40066b:	0f 1f 44 00 00       	nop    DWORD PTR [rax+rax*1+0x0]
  400670:	f3 c3                	repz ret 
  400672:	0f 1f 40 00          	nop    DWORD PTR [rax+0x0]
  400676:	66 2e 0f 1f 84 00 00 	nop    WORD PTR cs:[rax+rax*1+0x0]
  40067d:	00 00 00 

0000000000400680 <frame_dummy>:
  400680:	55                   	push   rbp
  400681:	48 89 e5             	mov    rbp,rsp
  400684:	5d                   	pop    rbp
  400685:	eb 89                	jmp    400610 <register_tm_clones>

0000000000400687 <try_to_call_me>:
  400687:	55                   	push   rbp
  400688:	48 89 e5             	mov    rbp,rsp
  40068b:	48 8d 3d 12 01 00 00 	lea    rdi,[rip+0x112]        # 4007a4 <_IO_stdin_used+0x4>
  400692:	e8 d9 fe ff ff       	call   400570 <system@plt>
  400697:	90                   	nop
  400698:	5d                   	pop    rbp
  400699:	c3                   	ret    

000000000040069a <main>:
  40069a:	55                   	push   rbp
  40069b:	48 89 e5             	mov    rbp,rsp
  40069e:	48 83 ec 30          	sub    rsp,0x30
  4006a2:	48 8b 05 b7 09 20 00 	mov    rax,QWORD PTR [rip+0x2009b7]        # 601060 <stdout@@GLIBC_2.2.5>
  4006a9:	b9 00 00 00 00       	mov    ecx,0x0
  4006ae:	ba 02 00 00 00       	mov    edx,0x2
  4006b3:	be 00 00 00 00       	mov    esi,0x0
  4006b8:	48 89 c7             	mov    rdi,rax
  4006bb:	e8 d0 fe ff ff       	call   400590 <setvbuf@plt>
  4006c0:	48 8b 05 a9 09 20 00 	mov    rax,QWORD PTR [rip+0x2009a9]        # 601070 <stdin@@GLIBC_2.2.5>
  4006c7:	b9 00 00 00 00       	mov    ecx,0x0
  4006cc:	ba 02 00 00 00       	mov    edx,0x2
  4006d1:	be 00 00 00 00       	mov    esi,0x0
  4006d6:	48 89 c7             	mov    rdi,rax
  4006d9:	e8 b2 fe ff ff       	call   400590 <setvbuf@plt>
  4006de:	48 8b 05 9b 09 20 00 	mov    rax,QWORD PTR [rip+0x20099b]        # 601080 <stderr@@GLIBC_2.2.5>
  4006e5:	b9 00 00 00 00       	mov    ecx,0x0
  4006ea:	ba 02 00 00 00       	mov    edx,0x2
  4006ef:	be 00 00 00 00       	mov    esi,0x0
  4006f4:	48 89 c7             	mov    rdi,rax
  4006f7:	e8 94 fe ff ff       	call   400590 <setvbuf@plt>
  4006fc:	48 8d 3d a4 00 00 00 	lea    rdi,[rip+0xa4]        # 4007a7 <_IO_stdin_used+0x7>
  400703:	e8 58 fe ff ff       	call   400560 <puts@plt>
  400708:	48 8d 45 d0          	lea    rax,[rbp-0x30]
  40070c:	48 89 c7             	mov    rdi,rax
  40070f:	b8 00 00 00 00       	mov    eax,0x0
  400714:	e8 67 fe ff ff       	call   400580 <gets@plt>
  400719:	b8 00 00 00 00       	mov    eax,0x0
  40071e:	c9                   	leave  
  40071f:	c3                   	ret    

0000000000400720 <__libc_csu_init>:
  400720:	41 57                	push   r15
  400722:	41 56                	push   r14
  400724:	49 89 d7             	mov    r15,rdx
  400727:	41 55                	push   r13
  400729:	41 54                	push   r12
  40072b:	4c 8d 25 de 06 20 00 	lea    r12,[rip+0x2006de]        # 600e10 <__frame_dummy_init_array_entry>
  400732:	55                   	push   rbp
  400733:	48 8d 2d de 06 20 00 	lea    rbp,[rip+0x2006de]        # 600e18 <__init_array_end>
  40073a:	53                   	push   rbx
  40073b:	41 89 fd             	mov    r13d,edi
  40073e:	49 89 f6             	mov    r14,rsi
  400741:	4c 29 e5             	sub    rbp,r12
  400744:	48 83 ec 08          	sub    rsp,0x8
  400748:	48 c1 fd 03          	sar    rbp,0x3
  40074c:	e8 df fd ff ff       	call   400530 <_init>
  400751:	48 85 ed             	test   rbp,rbp
  400754:	74 20                	je     400776 <__libc_csu_init+0x56>
  400756:	31 db                	xor    ebx,ebx
  400758:	0f 1f 84 00 00 00 00 	nop    DWORD PTR [rax+rax*1+0x0]
  40075f:	00 
  400760:	4c 89 fa             	mov    rdx,r15
  400763:	4c 89 f6             	mov    rsi,r14
  400766:	44 89 ef             	mov    edi,r13d
  400769:	41 ff 14 dc          	call   QWORD PTR [r12+rbx*8]
  40076d:	48 83 c3 01          	add    rbx,0x1
  400771:	48 39 dd             	cmp    rbp,rbx
  400774:	75 ea                	jne    400760 <__libc_csu_init+0x40>
  400776:	48 83 c4 08          	add    rsp,0x8
  40077a:	5b                   	pop    rbx
  40077b:	5d                   	pop    rbp
  40077c:	41 5c                	pop    r12
  40077e:	41 5d                	pop    r13
  400780:	41 5e                	pop    r14
  400782:	41 5f                	pop    r15
  400784:	c3                   	ret    
  400785:	90                   	nop
  400786:	66 2e 0f 1f 84 00 00 	nop    WORD PTR cs:[rax+rax*1+0x0]
  40078d:	00 00 00 

0000000000400790 <__libc_csu_fini>:
  400790:	f3 c3                	repz ret 

Disassembly of section .fini:

0000000000400794 <_fini>:
  400794:	48 83 ec 08          	sub    rsp,0x8
  400798:	48 83 c4 08          	add    rsp,0x8
  40079c:	c3                   	ret    
